; Function Attrs: mustprogress uwtable
define hidden void @_ZN4cvc58internal6theory11quantifiers24InstStrategyUserPatternsC2ERNS0_3EnvERNS2_4inst15TriggerDatabaseERNS2_16QuantifiersStateERNS2_27QuantifiersInferenceManagerERNS2_19QuantifiersRegistryERNS2_12TermRegistryE(ptr noundef nonnull align 8 dereferenceable(200) %this, ptr noundef nonnull align 8 dereferenceable(576) %env, ptr noundef nonnull align 8 dereferenceable(120) %td, ptr noundef nonnull align 8 dereferenceable(248) %qs, ptr noundef nonnull align 1 %qim, ptr noundef nonnull align 1 %qr, ptr noundef nonnull align 1 %tr) unnamed_addr #3 align 2 personality ptr @__gxx_personality_v0 {
entry:
  tail call void @_ZN4cvc58internal6theory11quantifiers12InstStrategyC2ERNS0_3EnvERNS2_4inst15TriggerDatabaseERNS2_16QuantifiersStateERNS2_27QuantifiersInferenceManagerERNS2_19QuantifiersRegistryERNS2_12TermRegistryE(ptr noundef nonnull align 8 dereferenceable(56) %this, ptr noundef nonnull align 8 dereferenceable(576) %env, ptr noundef nonnull align 8 dereferenceable(120) %td, ptr noundef nonnull align 8 dereferenceable(248) %qs, ptr noundef nonnull align 1 %qim, ptr noundef nonnull align 1 %qr, ptr noundef nonnull align 1 %tr)
  store ptr getelementptr inbounds ({ [8 x ptr] }, ptr @_ZTVN4cvc58internal6theory11quantifiers24InstStrategyUserPatternsE, i64 0, i32 0, i64 2), ptr %this, align 8
  %0 = getelementptr inbounds i8, ptr %this, i64 64
  store i32 0, ptr %0, align 8
  %_M_parent.i.i.i.i.i = getelementptr inbounds i8, ptr %this, i64 72
  store ptr null, ptr %_M_parent.i.i.i.i.i, align 8
  %_M_left.i.i.i.i.i = getelementptr inbounds i8, ptr %this, i64 80
  store ptr %0, ptr %_M_left.i.i.i.i.i, align 8
  %_M_right.i.i.i.i.i = getelementptr inbounds i8, ptr %this, i64 88
  store ptr %0, ptr %_M_right.i.i.i.i.i, align 8
  %_M_node_count.i.i.i.i.i = getelementptr inbounds i8, ptr %this, i64 96
  store i64 0, ptr %_M_node_count.i.i.i.i.i, align 8
  %1 = getelementptr inbounds i8, ptr %this, i64 112
  store i32 0, ptr %1, align 8
  %_M_parent.i.i.i.i.i1 = getelementptr inbounds i8, ptr %this, i64 120
  store ptr null, ptr %_M_parent.i.i.i.i.i1, align 8
  %_M_left.i.i.i.i.i2 = getelementptr inbounds i8, ptr %this, i64 128
  store ptr %1, ptr %_M_left.i.i.i.i.i2, align 8
  %_M_right.i.i.i.i.i3 = getelementptr inbounds i8, ptr %this, i64 136
  store ptr %1, ptr %_M_right.i.i.i.i.i3, align 8
  %_M_node_count.i.i.i.i.i4 = getelementptr inbounds i8, ptr %this, i64 144
  store i64 0, ptr %_M_node_count.i.i.i.i.i4, align 8
  %2 = getelementptr inbounds i8, ptr %this, i64 160
  store i32 0, ptr %2, align 8
  %_M_parent.i.i.i.i.i5 = getelementptr inbounds i8, ptr %this, i64 168
  store ptr null, ptr %_M_parent.i.i.i.i.i5, align 8
  %_M_left.i.i.i.i.i6 = getelementptr inbounds i8, ptr %this, i64 176
  store ptr %2, ptr %_M_left.i.i.i.i.i6, align 8
  %_M_right.i.i.i.i.i7 = getelementptr inbounds i8, ptr %this, i64 184
  store ptr %2, ptr %_M_right.i.i.i.i.i7, align 8
  %_M_node_count.i.i.i.i.i8 = getelementptr inbounds i8, ptr %this, i64 192
  store i64 0, ptr %_M_node_count.i.i.i.i.i8, align 8
  ret void
}